; ModuleID = '28/1939.c'
source_filename = "28/1939.c"
target datalayout = "e-m:e-p270:32:32-p271:32:32-p272:64:64-i64:64-f80:128-n8:16:32:64-S128"
target triple = "x86_64-pc-linux-gnu"

@.str = private unnamed_addr constant [4 x i8] c"%d,\00", align 1
@.str.1 = private unnamed_addr constant [3 x i8] c"%d\00", align 1

; Function Attrs: noinline nounwind uwtable
define dso_local i32 @main() #0 {
  %1 = alloca i32, align 4
  %2 = alloca i32, align 4
  %3 = alloca i32, align 4
  %4 = alloca i32, align 4
  %5 = alloca i32, align 4
  %6 = alloca i32, align 4
  %7 = alloca i32, align 4
  %8 = alloca [1000 x i32], align 16
  %9 = alloca [100000 x i8], align 16
  %10 = alloca [100000 x i8], align 16
  %11 = alloca [1000 x [100 x i8]], align 16
  store i32 0, i32* %1, align 4
  store i32 0, i32* %5, align 4
  store i32 0, i32* %6, align 4
  store i32 0, i32* %7, align 4
  %12 = bitcast [1000 x i32]* %8 to i8*
  call void @llvm.memset.p0i8.i64(i8* align 16 %12, i8 0, i64 4000, i1 false)
  %13 = bitcast [100000 x i8]* %9 to i8*
  call void @llvm.memset.p0i8.i64(i8* align 16 %13, i8 0, i64 100000, i1 false)
  %14 = bitcast i8* %13 to <{ i8, [99999 x i8] }>*
  %15 = getelementptr inbounds <{ i8, [99999 x i8] }>, <{ i8, [99999 x i8] }>* %14, i32 0, i32 0
  store i8 32, i8* %15, align 16
  %16 = bitcast [100000 x i8]* %10 to i8*
  call void @llvm.memset.p0i8.i64(i8* align 16 %16, i8 0, i64 100000, i1 false)
  %17 = bitcast i8* %16 to <{ i8, [99999 x i8] }>*
  %18 = getelementptr inbounds <{ i8, [99999 x i8] }>, <{ i8, [99999 x i8] }>* %17, i32 0, i32 0
  store i8 32, i8* %18, align 16
  %19 = bitcast [1000 x [100 x i8]]* %11 to i8*
  call void @llvm.memset.p0i8.i64(i8* align 16 %19, i8 0, i64 100000, i1 false)
  %20 = bitcast i8* %19 to <{ <{ i8, [99 x i8] }>, [999 x <{ i8, [99 x i8] }>] }>*
  %21 = getelementptr inbounds <{ <{ i8, [99 x i8] }>, [999 x <{ i8, [99 x i8] }>] }>, <{ <{ i8, [99 x i8] }>, [999 x <{ i8, [99 x i8] }>] }>* %20, i32 0, i32 0
  %22 = getelementptr inbounds <{ i8, [99 x i8] }>, <{ i8, [99 x i8] }>* %21, i32 0, i32 0
  store i8 32, i8* %22, align 16
  %23 = getelementptr inbounds [100000 x i8], [100000 x i8]* %9, i64 0, i64 0
  %24 = call i32 (i8*, ...) bitcast (i32 (...)* @gets to i32 (i8*, ...)*)(i8* %23)
  %25 = getelementptr inbounds [100000 x i8], [100000 x i8]* %9, i64 0, i64 0
  %26 = call i64 @strlen(i8* %25) #4
  %27 = trunc i64 %26 to i32
  store i32 %27, i32* %4, align 4
  store i32 0, i32* %2, align 4
  br label %28

28:                                               ; preds = %64, %0
  %29 = load i32, i32* %2, align 4
  %30 = load i32, i32* %4, align 4
  %31 = icmp slt i32 %29, %30
  br i1 %31, label %32, label %67

32:                                               ; preds = %28
  %33 = load i32, i32* %2, align 4
  %34 = sext i32 %33 to i64
  %35 = getelementptr inbounds [100000 x i8], [100000 x i8]* %9, i64 0, i64 %34
  %36 = load i8, i8* %35, align 1
  %37 = sext i8 %36 to i32
  %38 = icmp ne i32 %37, 32
  br i1 %38, label %54, label %39

39:                                               ; preds = %32
  %40 = load i32, i32* %2, align 4
  %41 = sext i32 %40 to i64
  %42 = getelementptr inbounds [100000 x i8], [100000 x i8]* %9, i64 0, i64 %41
  %43 = load i8, i8* %42, align 1
  %44 = sext i8 %43 to i32
  %45 = icmp eq i32 %44, 32
  br i1 %45, label %46, label %63

46:                                               ; preds = %39
  %47 = load i32, i32* %2, align 4
  %48 = sub nsw i32 %47, 1
  %49 = sext i32 %48 to i64
  %50 = getelementptr inbounds [100000 x i8], [100000 x i8]* %9, i64 0, i64 %49
  %51 = load i8, i8* %50, align 1
  %52 = sext i8 %51 to i32
  %53 = icmp ne i32 %52, 32
  br i1 %53, label %54, label %63

54:                                               ; preds = %46, %32
  %55 = load i32, i32* %2, align 4
  %56 = sext i32 %55 to i64
  %57 = getelementptr inbounds [100000 x i8], [100000 x i8]* %9, i64 0, i64 %56
  %58 = load i8, i8* %57, align 1
  %59 = load i32, i32* %6, align 4
  %60 = add nsw i32 %59, 1
  store i32 %60, i32* %6, align 4
  %61 = sext i32 %59 to i64
  %62 = getelementptr inbounds [100000 x i8], [100000 x i8]* %10, i64 0, i64 %61
  store i8 %58, i8* %62, align 1
  br label %63

63:                                               ; preds = %54, %46, %39
  br label %64

64:                                               ; preds = %63
  %65 = load i32, i32* %2, align 4
  %66 = add nsw i32 %65, 1
  store i32 %66, i32* %2, align 4
  br label %28

67:                                               ; preds = %28
  store i32 0, i32* %2, align 4
  br label %68

68:                                               ; preds = %103, %67
  %69 = load i32, i32* %2, align 4
  %70 = load i32, i32* %6, align 4
  %71 = icmp slt i32 %69, %70
  br i1 %71, label %72, label %106

72:                                               ; preds = %68
  %73 = load i32, i32* %2, align 4
  %74 = sext i32 %73 to i64
  %75 = getelementptr inbounds [100000 x i8], [100000 x i8]* %10, i64 0, i64 %74
  %76 = load i8, i8* %75, align 1
  %77 = sext i8 %76 to i32
  %78 = icmp ne i32 %77, 32
  br i1 %78, label %79, label %91

79:                                               ; preds = %72
  %80 = load i32, i32* %2, align 4
  %81 = sext i32 %80 to i64
  %82 = getelementptr inbounds [100000 x i8], [100000 x i8]* %10, i64 0, i64 %81
  %83 = load i8, i8* %82, align 1
  %84 = load i32, i32* %5, align 4
  %85 = sext i32 %84 to i64
  %86 = getelementptr inbounds [1000 x [100 x i8]], [1000 x [100 x i8]]* %11, i64 0, i64 %85
  %87 = load i32, i32* %7, align 4
  %88 = add nsw i32 %87, 1
  store i32 %88, i32* %7, align 4
  %89 = sext i32 %87 to i64
  %90 = getelementptr inbounds [100 x i8], [100 x i8]* %86, i64 0, i64 %89
  store i8 %83, i8* %90, align 1
  br label %102

91:                                               ; preds = %72
  %92 = load i32, i32* %2, align 4
  %93 = sext i32 %92 to i64
  %94 = getelementptr inbounds [100000 x i8], [100000 x i8]* %10, i64 0, i64 %93
  %95 = load i8, i8* %94, align 1
  %96 = sext i8 %95 to i32
  %97 = icmp eq i32 %96, 32
  br i1 %97, label %98, label %101

98:                                               ; preds = %91
  %99 = load i32, i32* %5, align 4
  %100 = add nsw i32 %99, 1
  store i32 %100, i32* %5, align 4
  store i32 0, i32* %7, align 4
  br label %101

101:                                              ; preds = %98, %91
  br label %102

102:                                              ; preds = %101, %79
  br label %103

103:                                              ; preds = %102
  %104 = load i32, i32* %2, align 4
  %105 = add nsw i32 %104, 1
  store i32 %105, i32* %2, align 4
  br label %68

106:                                              ; preds = %68
  store i32 0, i32* %2, align 4
  br label %107

107:                                              ; preds = %126, %106
  %108 = load i32, i32* %2, align 4
  %109 = load i32, i32* %5, align 4
  %110 = icmp slt i32 %108, %109
  br i1 %110, label %111, label %129

111:                                              ; preds = %107
  %112 = load i32, i32* %2, align 4
  %113 = sext i32 %112 to i64
  %114 = getelementptr inbounds [1000 x [100 x i8]], [1000 x [100 x i8]]* %11, i64 0, i64 %113
  %115 = getelementptr inbounds [100 x i8], [100 x i8]* %114, i64 0, i64 0
  %116 = call i64 @strlen(i8* %115) #4
  %117 = trunc i64 %116 to i32
  %118 = load i32, i32* %2, align 4
  %119 = sext i32 %118 to i64
  %120 = getelementptr inbounds [1000 x i32], [1000 x i32]* %8, i64 0, i64 %119
  store i32 %117, i32* %120, align 4
  %121 = load i32, i32* %2, align 4
  %122 = sext i32 %121 to i64
  %123 = getelementptr inbounds [1000 x i32], [1000 x i32]* %8, i64 0, i64 %122
  %124 = load i32, i32* %123, align 4
  %125 = call i32 (i8*, ...) @printf(i8* getelementptr inbounds ([4 x i8], [4 x i8]* @.str, i64 0, i64 0), i32 %124)
  br label %126

126:                                              ; preds = %111
  %127 = load i32, i32* %2, align 4
  %128 = add nsw i32 %127, 1
  store i32 %128, i32* %2, align 4
  br label %107

129:                                              ; preds = %107
  %130 = load i32, i32* %5, align 4
  %131 = sext i32 %130 to i64
  %132 = getelementptr inbounds [1000 x [100 x i8]], [1000 x [100 x i8]]* %11, i64 0, i64 %131
  %133 = getelementptr inbounds [100 x i8], [100 x i8]* %132, i64 0, i64 0
  %134 = call i64 @strlen(i8* %133) #4
  %135 = call i32 (i8*, ...) @printf(i8* getelementptr inbounds ([3 x i8], [3 x i8]* @.str.1, i64 0, i64 0), i64 %134)
  %136 = call i32 (i8*, ...) @__isoc99_scanf(i8* getelementptr inbounds ([3 x i8], [3 x i8]* @.str.1, i64 0, i64 0), i32* %2)
  ret i32 0
}

; Function Attrs: argmemonly nounwind willreturn
declare void @llvm.memset.p0i8.i64(i8* nocapture writeonly, i8, i64, i1 immarg) #1

declare dso_local i32 @gets(...) #2

; Function Attrs: nounwind readonly
declare dso_local i64 @strlen(i8*) #3

declare dso_local i32 @printf(i8*, ...) #2

declare dso_local i32 @__isoc99_scanf(i8*, ...) #2


!llvm.module.flags = !{!0}
!llvm.ident = !{!1}

!0 = !{i32 1, !"wchar_size", i32 4}
!1 = !{!"clang version 10.0.0-4ubuntu1 "}
